target datalayout = "e-m:e-p270:32:32-p271:32:32-p272:64:64-i64:64-i128:128-f80:128-n8:16:32:64-S128"
target triple = "x86_64-pc-linux-gnu"

%struct.child_process = type { %struct.strvec, %struct.strvec, i32, i32, i64, ptr, ptr, i32, i32, i32, ptr, i16, ptr }
%struct.strvec = type { ptr, i64, i64 }

@.str.5 = private unnamed_addr constant [6 x i8] c"pager\00", align 1
@.str.14 = private unnamed_addr constant [15 x i8] c"LESS=FRX LV=-c\00", align 1
@.str.15 = private unnamed_addr constant [35 x i8] c"malformed build-time PAGER_ENV: %s\00", align 1
@.str.16 = private unnamed_addr constant [31 x i8] c"malformed build-time PAGER_ENV\00", align 1

; Function Attrs: nounwind uwtable
define internal void @setup_pager_env(ptr noundef %0) #0 {
  %2 = alloca ptr, align 8
  %3 = alloca ptr, align 8
  %4 = alloca i32, align 4
  %5 = alloca ptr, align 8
  %6 = alloca i32, align 4
  %7 = alloca ptr, align 8
  store ptr %0, ptr %2, align 8, !tbaa !26
  call void @llvm.lifetime.start.p0(i64 8, ptr %3) #8
  call void @llvm.lifetime.start.p0(i64 4, ptr %4) #8
  call void @llvm.lifetime.start.p0(i64 8, ptr %5) #8
  %8 = call ptr @xstrdup(ptr noundef @.str.14)
  store ptr %8, ptr %5, align 8, !tbaa !13
  call void @llvm.lifetime.start.p0(i64 4, ptr %6) #8
  %9 = load ptr, ptr %5, align 8, !tbaa !13
  %10 = call i32 @split_cmdline(ptr noundef %9, ptr noundef %3)
  store i32 %10, ptr %6, align 4, !tbaa !4
  %11 = load i32, ptr %6, align 4, !tbaa !4
  %12 = icmp slt i32 %11, 0
  br i1 %12, label %13, label %16

13:                                               ; preds = %1
  %14 = load i32, ptr %6, align 4, !tbaa !4
  %15 = call ptr @split_cmdline_strerror(i32 noundef %14)
  call void (ptr, ...) @die(ptr noundef @.str.15, ptr noundef %15) #10
  unreachable

16:                                               ; preds = %1
  store i32 0, ptr %4, align 4, !tbaa !4
  br label %17

17:                                               ; preds = %50, %16
  %18 = load i32, ptr %4, align 4, !tbaa !4
  %19 = load i32, ptr %6, align 4, !tbaa !4
  %20 = icmp slt i32 %18, %19
  br i1 %20, label %21, label %53

21:                                               ; preds = %17
  call void @llvm.lifetime.start.p0(i64 8, ptr %7) #8
  %22 = load ptr, ptr %3, align 8, !tbaa !28
  %23 = load i32, ptr %4, align 4, !tbaa !4
  %24 = sext i32 %23 to i64
  %25 = getelementptr inbounds ptr, ptr %22, i64 %24
  %26 = load ptr, ptr %25, align 8, !tbaa !13
  %27 = call ptr @strchr(ptr noundef %26, i32 noundef 61) #9
  store ptr %27, ptr %7, align 8, !tbaa !13
  %28 = load ptr, ptr %7, align 8, !tbaa !13
  %29 = icmp ne ptr %28, null
  br i1 %29, label %31, label %30

30:                                               ; preds = %21
  call void (ptr, ...) @die(ptr noundef @.str.16) #10
  unreachable

31:                                               ; preds = %21
  %32 = load ptr, ptr %7, align 8, !tbaa !13
  store i8 0, ptr %32, align 1, !tbaa !15
  %33 = load ptr, ptr %3, align 8, !tbaa !28
  %34 = load i32, ptr %4, align 4, !tbaa !4
  %35 = sext i32 %34 to i64
  %36 = getelementptr inbounds ptr, ptr %33, i64 %35
  %37 = load ptr, ptr %36, align 8, !tbaa !13
  %38 = call ptr @getenv(ptr noundef %37) #8
  %39 = icmp ne ptr %38, null
  br i1 %39, label %49, label %40

40:                                               ; preds = %31
  %41 = load ptr, ptr %7, align 8, !tbaa !13
  store i8 61, ptr %41, align 1, !tbaa !15
  %42 = load ptr, ptr %2, align 8, !tbaa !26
  %43 = load ptr, ptr %3, align 8, !tbaa !28
  %44 = load i32, ptr %4, align 4, !tbaa !4
  %45 = sext i32 %44 to i64
  %46 = getelementptr inbounds ptr, ptr %43, i64 %45
  %47 = load ptr, ptr %46, align 8, !tbaa !13
  %48 = call ptr @strvec_push(ptr noundef %42, ptr noundef %47)
  br label %49

49:                                               ; preds = %40, %31
  call void @llvm.lifetime.end.p0(i64 8, ptr %7) #8
  br label %50

50:                                               ; preds = %49
  %51 = load i32, ptr %4, align 4, !tbaa !4
  %52 = add nsw i32 %51, 1
  store i32 %52, ptr %4, align 4, !tbaa !4
  br label %17, !llvm.loop !29

53:                                               ; preds = %17
  %54 = load ptr, ptr %5, align 8, !tbaa !13
  call void @free(ptr noundef %54) #8
  %55 = load ptr, ptr %3, align 8, !tbaa !28
  call void @free(ptr noundef %55) #8
  call void @llvm.lifetime.end.p0(i64 4, ptr %6) #8
  call void @llvm.lifetime.end.p0(i64 8, ptr %5) #8
  call void @llvm.lifetime.end.p0(i64 4, ptr %4) #8
  call void @llvm.lifetime.end.p0(i64 8, ptr %3) #8
  ret void
}

; Function Attrs: nounwind uwtable
define dso_local void @prepare_pager_args(ptr noundef %0, ptr noundef %1) #0 {
  %3 = alloca ptr, align 8
  %4 = alloca ptr, align 8
  store ptr %0, ptr %3, align 8, !tbaa !19
  store ptr %1, ptr %4, align 8, !tbaa !13
  %5 = load ptr, ptr %3, align 8, !tbaa !19
  %6 = getelementptr inbounds nuw %struct.child_process, ptr %5, i32 0, i32 0
  %7 = load ptr, ptr %4, align 8, !tbaa !13
  %8 = call ptr @strvec_push(ptr noundef %6, ptr noundef %7)
  %9 = load ptr, ptr %3, align 8, !tbaa !19
  %10 = getelementptr inbounds nuw %struct.child_process, ptr %9, i32 0, i32 11
  %11 = load i16, ptr %10, align 8
  %12 = and i16 %11, -33
  %13 = or i16 %12, 32
  store i16 %13, ptr %10, align 8
  %14 = load ptr, ptr %3, align 8, !tbaa !19
  %15 = getelementptr inbounds nuw %struct.child_process, ptr %14, i32 0, i32 1
  call void @setup_pager_env(ptr noundef %15)
  %16 = load ptr, ptr %3, align 8, !tbaa !19
  %17 = getelementptr inbounds nuw %struct.child_process, ptr %16, i32 0, i32 5
  store ptr @.str.5, ptr %17, align 8, !tbaa !21
  ret void
}