; Function Attrs: nounwind uwtable
define dso_local void @prepare_pager_args(ptr noundef %0, ptr noundef %1) local_unnamed_addr #0 {
  %3 = alloca ptr, align 8
  %4 = tail call ptr @strvec_push(ptr noundef %0, ptr noundef %1) #12
  %5 = getelementptr inbounds nuw i8, ptr %0, i64 104
  %6 = load i16, ptr %5, align 8
  %7 = or i16 %6, 32
  store i16 %7, ptr %5, align 8
  %8 = getelementptr inbounds nuw i8, ptr %0, i64 24
  call void @llvm.lifetime.start.p0(i64 8, ptr nonnull %3) #12
  %9 = tail call ptr @xstrdup(ptr noundef nonnull @.str.14) #12
  %10 = call i32 @split_cmdline(ptr noundef %9, ptr noundef nonnull %3) #12
  %11 = icmp slt i32 %10, 0
  br i1 %11, label %12, label %.preheader.i

.preheader.i:                                     ; preds = %2
  %.not17.i = icmp eq i32 %10, 0
  br i1 %.not17.i, label %setup_pager_env.exit, label %.lr.ph.preheader.i

.lr.ph.preheader.i:                               ; preds = %.preheader.i
  %wide.trip.count.i = zext nneg i32 %10 to i64
  br label %.lr.ph.i

12:                                               ; preds = %2
  %13 = call ptr @split_cmdline_strerror(i32 noundef %10) #12
  call void (ptr, ...) @die(ptr noundef nonnull @.str.15, ptr noundef %13) #14
  unreachable

.lr.ph.i:                                         ; preds = %29, %.lr.ph.preheader.i
  %indvars.iv.i = phi i64 [ 0, %.lr.ph.preheader.i ], [ %indvars.iv.next.i, %29 ]
  %14 = load ptr, ptr %3, align 8, !tbaa !14
  %15 = getelementptr inbounds nuw ptr, ptr %14, i64 %indvars.iv.i
  %16 = load ptr, ptr %15, align 8, !tbaa !11
  %17 = call ptr @strchr(ptr noundef nonnull dereferenceable(1) %16, i32 noundef 61) #13
  %.not.i = icmp eq ptr %17, null
  br i1 %.not.i, label %18, label %19

18:                                               ; preds = %.lr.ph.i
  call void (ptr, ...) @die(ptr noundef nonnull @.str.16) #14
  unreachable

19:                                               ; preds = %.lr.ph.i
  store i8 0, ptr %17, align 1, !tbaa !13
  %20 = load ptr, ptr %3, align 8, !tbaa !14
  %21 = getelementptr inbounds nuw ptr, ptr %20, i64 %indvars.iv.i
  %22 = load ptr, ptr %21, align 8, !tbaa !11
  %23 = call ptr @getenv(ptr noundef %22) #12
  %.not15.i = icmp eq ptr %23, null
  br i1 %.not15.i, label %24, label %29

24:                                               ; preds = %19
  store i8 61, ptr %17, align 1, !tbaa !13
  %25 = load ptr, ptr %3, align 8, !tbaa !14
  %26 = getelementptr inbounds nuw ptr, ptr %25, i64 %indvars.iv.i
  %27 = load ptr, ptr %26, align 8, !tbaa !11
  %28 = call ptr @strvec_push(ptr noundef nonnull %8, ptr noundef %27) #12
  br label %29

29:                                               ; preds = %24, %19
  %indvars.iv.next.i = add nuw nsw i64 %indvars.iv.i, 1
  %exitcond.not.i = icmp eq i64 %indvars.iv.next.i, %wide.trip.count.i
  br i1 %exitcond.not.i, label %setup_pager_env.exit, label %.lr.ph.i, !llvm.loop !16

setup_pager_env.exit:                             ; preds = %29, %.preheader.i
  call void @free(ptr noundef %9) #12
  %30 = load ptr, ptr %3, align 8, !tbaa !14
  call void @free(ptr noundef %30) #12
  call void @llvm.lifetime.end.p0(i64 8, ptr nonnull %3) #12
  %31 = getelementptr inbounds nuw i8, ptr %0, i64 64
  store ptr @.str.5, ptr %31, align 8, !tbaa !18
  ret void
}